; Function Attrs: nounwind sspstrong uwtable
define internal i64 @etc_each_group(i64 noundef %0) #0 {
  %2 = tail call i32 @rb_block_given_p() #13
  %.not = icmp eq i32 %2, 0
  br i1 %.not, label %3, label %7

3:                                                ; preds = %1
  %4 = tail call i64 @rb_frame_this_func() #13
  %5 = tail call i64 @rb_id2sym(i64 noundef %4) #13
  %6 = tail call i64 @rb_enumeratorize_with_size(i64 noundef %0, i64 noundef %5, i32 noundef 0, ptr noundef null, ptr noundef null) #13
  br label %12

7:                                                ; preds = %1
  %8 = cmpxchg volatile ptr @group_blocking, i32 0, i32 1 seq_cst seq_cst, align 4
  %.not.i = extractvalue { i32, i1 } %8, 1
  br i1 %.not.i, label %each_group.exit, label %9

9:                                                ; preds = %7
  %10 = load i64, ptr @rb_eRuntimeError, align 8, !tbaa !6
  tail call void (i64, ptr, ...) @rb_raise(i64 noundef %10, ptr noundef nonnull @.str.222) #15
  unreachable

each_group.exit:                                  ; preds = %7
  %11 = tail call i64 @rb_ensure(ptr noundef nonnull @group_iterate, i64 noundef 0, ptr noundef nonnull @group_ensure, i64 noundef 0) #13
  br label %12

12:                                               ; preds = %each_group.exit, %3
  %.0 = phi i64 [ %0, %each_group.exit ], [ %6, %3 ]
  ret i64 %.0
}